(dp1
S'area'
p2
(lp3
I0
aI30000
aI5000
aI35000
asS'spacing'
p4
(lp5
F337.07865168539325
aF337.07865168539325
asS'N'
I8100
sS'shape'
p6
(I90
I90
tp7
sS'DS'
p8
F113622.01742204267
sS'metadata'
p9
S'Generated by computation_points.ipynb on 24 October 2016 01:15:22 UTC'
p10
s.