(dp1
S'area'
p2
(lp3
I0
aI30000
aF5517.2413793103451
aF34482.758620689652
asS'spacing'
p4
(lp5
F252.10084033613447
aF1034.4827586206895
asS'N'
I3600
sS'shape'
p6
(I120
I29
tp7
sS'DS'
p8
F260793.97276151838
sS'metadata'
p9
S'Generated by computation_points.ipynb on 24 October 2016 01:15:21 UTC'
p10
s.