(dp1
S'model'
p2
(lp3
ccopy_reg
_reconstructor
p4
(cfatiando.mesher
Prism
p5
c__builtin__
object
p6
NtRp7
(dp8
S'y2'
p9
F17000
sS'y1'
p10
F15000
sS'props'
p11
(dp12
S'magnetization'
p13
cnumpy.core.multiarray
_reconstruct
p14
(cnumpy
ndarray
p15
(I0
tS'b'
tRp16
(I1
(L3L
tcnumpy
dtype
p17
(S'f8'
I0
I1
tRp18
(I3
S'<'
NNNI-1
I-1
I0
tbI00
S'\ts\xd9\xbf\xaf\x0f\xc6<\x00\x00\x00\x00\x00\x00\x00\x00\x00\x00\x00\x00\x00\x00$@'
tbsS'density'
p19
F1000
ssS'x2'
p20
F18000
sS'x1'
p21
F16000
sS'z1'
p22
F50
sS'z2'
p23
F2000
sbag4
(g5
g6
NtRp24
(dp25
g9
F22000
sg10
F16000
sg11
(dp26
g13
g14
(g15
(I0
tS'b'
tRp27
(I1
(L3L
tg18
I00
S'\ts\xd9\xbf\xaf\x0f\xc6<\x00\x00\x00\x00\x00\x00\x00\x00\x00\x00\x00\x00\x00\x00$@'
tbsg19
F1000
ssg20
F15000
sg21
F13000
sg22
F100
sg23
F2100
sbasS'metadata'
p28
S'Generated by synthetic_model.ipynb on 24 October 2016 01:12:42 UTC'
p29
sS'geomag_field'
p30
(F90
F0
tp31
sS'projection'
p32
(lp33
(lp34
F16000
aF18000
aF15000
aF17000
aa(lp35
F13000
aF15000
aF16000
aF22000
aas.