(dp1
S'area'
p2
(lp3
I0
aI30000
aI5000
aI35000
asS'spacing'
p4
(lp5
F167.5977653631285
aF167.5977653631285
asS'N'
I32400
sS'shape'
p6
(I180
I180
tp7
sS'DS'
p8
F28089.010954714275
sS'metadata'
p9
S'Generated by computation_points.ipynb on 19 October 2016 19:27:10 UTC'
p10
s.